target datalayout = "e-m:e-p270:32:32-p271:32:32-p272:64:64-i64:64-i128:128-f80:128-n8:16:32:64-S128"
target triple = "x86_64-pc-linux-gnu"

%struct.ARKodeMemRec = type { ptr, double, ptr, i32, i32, double, double, ptr, i32, double, ptr, i32, i32, ptr, ptr, i32, ptr, ptr, i32, ptr, ptr, ptr, ptr, ptr, ptr, ptr, ptr, ptr, ptr, ptr, ptr, ptr, ptr, ptr, i32, ptr, ptr, i32, ptr, i32, ptr, ptr, ptr, ptr, ptr, ptr, ptr, ptr, ptr, ptr, ptr, ptr, ptr, ptr, ptr, ptr, ptr, ptr, ptr, ptr, ptr, ptr, ptr, ptr, ptr, ptr, i32, ptr, ptr, ptr, ptr, ptr, ptr, ptr, i32, ptr, ptr, ptr, i32, ptr, ptr, ptr, ptr, ptr, ptr, ptr, i32, i32, i32, i32, double, double, double, double, double, double, double, double, double, double, i32, ptr, i64, i32, i32, i32, i32, i64, i64, i32, i64, i64, i64, i64, i64, i64, i64, double, double, double, double, double, i32, double, double, i32, i32, i32, i32, i32, i32, i32, i32, ptr, i32, ptr, ptr, ptr, ptr, i32, i32, i32 }
%struct.ARKodeMRIStepMemRec = type { ptr, ptr, i32, i32, i32, i32, i32, ptr, ptr, i32, i32, i32, ptr, i32, i32, i32, i32, i32, ptr, ptr, ptr, ptr, ptr, ptr, ptr, i32, ptr, i32, ptr, double, double, double, double, i32, double, double, double, double, double, double, i32, i64, i32, i32, i32, ptr, ptr, ptr, ptr, ptr, ptr, ptr, ptr, ptr, double, double, double, i64, i64, i64, i64, i64, i64, i32, i32, i32, double, double, ptr, i32, ptr, ptr }

@.str = private unnamed_addr constant [123 x i8] c"generated/home/dtcxzyw/WorkSpace/Projects/compilers/llvm-opt-benchmark/bench/sundials/sundials/src/arkode/arkode_mristep.c\00", align 1
@__func__.mriStep_AttachLinsol = private unnamed_addr constant [21 x i8] c"mriStep_AttachLinsol\00", align 1
@.str.75 = private unnamed_addr constant [33 x i8] c"Time step module memory is NULL.\00", align 1

; Function Attrs: nounwind uwtable
define i32 @mriStep_AccessStepMem(ptr noundef %0, ptr noundef %1, ptr noundef %2) #0 {
  %4 = alloca i32, align 4
  %5 = alloca ptr, align 8
  %6 = alloca ptr, align 8
  %7 = alloca ptr, align 8
  store ptr %0, ptr %5, align 8, !tbaa !17
  store ptr %1, ptr %6, align 8, !tbaa !221
  store ptr %2, ptr %7, align 8, !tbaa !225
  %8 = load ptr, ptr %5, align 8, !tbaa !17
  %9 = getelementptr inbounds nuw %struct.ARKodeMemRec, ptr %8, i32 0, i32 19
  %10 = load ptr, ptr %9, align 8, !tbaa !70
  %11 = icmp eq ptr %10, null
  br i1 %11, label %12, label %15

12:                                               ; preds = %3
  %13 = load ptr, ptr %5, align 8, !tbaa !17
  %14 = load ptr, ptr %6, align 8, !tbaa !221
  call void (ptr, i32, i32, ptr, ptr, ptr, ...) @arkProcessError(ptr noundef %13, i32 noundef -21, i32 noundef 3097, ptr noundef %14, ptr noundef @.str, ptr noundef @.str.75)
  store i32 -21, ptr %4, align 4
  br label %20

15:                                               ; preds = %3
  %16 = load ptr, ptr %5, align 8, !tbaa !17
  %17 = getelementptr inbounds nuw %struct.ARKodeMemRec, ptr %16, i32 0, i32 19
  %18 = load ptr, ptr %17, align 8, !tbaa !70
  %19 = load ptr, ptr %7, align 8, !tbaa !225
  store ptr %18, ptr %19, align 8, !tbaa !19
  store i32 0, ptr %4, align 4
  br label %20

20:                                               ; preds = %15, %12
  %21 = load i32, ptr %4, align 4
  ret i32 %21
}

; Function Attrs: nounwind uwtable
define i32 @mriStep_AttachLinsol(ptr noundef %0, ptr noundef %1, ptr noundef %2, ptr noundef %3, ptr noundef %4, i32 noundef %5, ptr noundef %6) #0 {
  %8 = alloca i32, align 4
  %9 = alloca ptr, align 8
  %10 = alloca ptr, align 8
  %11 = alloca ptr, align 8
  %12 = alloca ptr, align 8
  %13 = alloca ptr, align 8
  %14 = alloca i32, align 4
  %15 = alloca ptr, align 8
  %16 = alloca ptr, align 8
  %17 = alloca i32, align 4
  %18 = alloca i32, align 4
  store ptr %0, ptr %9, align 8, !tbaa !17
  store ptr %1, ptr %10, align 8, !tbaa !3
  store ptr %2, ptr %11, align 8, !tbaa !3
  store ptr %3, ptr %12, align 8, !tbaa !3
  store ptr %4, ptr %13, align 8, !tbaa !3
  store i32 %5, ptr %14, align 4, !tbaa !15
  store ptr %6, ptr %15, align 8, !tbaa !3
  call void @llvm.lifetime.start.p0(i64 8, ptr %16) #8
  call void @llvm.lifetime.start.p0(i64 4, ptr %17) #8
  %19 = load ptr, ptr %9, align 8, !tbaa !17
  %20 = call i32 @mriStep_AccessStepMem(ptr noundef %19, ptr noundef @__func__.mriStep_AttachLinsol, ptr noundef %16)
  store i32 %20, ptr %17, align 4, !tbaa !15
  %21 = load i32, ptr %17, align 4, !tbaa !15
  %22 = icmp ne i32 %21, 0
  br i1 %22, label %23, label %25

23:                                               ; preds = %7
  %24 = load i32, ptr %17, align 4, !tbaa !15
  store i32 %24, ptr %8, align 4
  store i32 1, ptr %18, align 4
  br label %56

25:                                               ; preds = %7
  %26 = load ptr, ptr %16, align 8, !tbaa !19
  %27 = getelementptr inbounds nuw %struct.ARKodeMRIStepMemRec, ptr %26, i32 0, i32 49
  %28 = load ptr, ptr %27, align 8, !tbaa !92
  %29 = icmp ne ptr %28, null
  br i1 %29, label %30, label %36

30:                                               ; preds = %25
  %31 = load ptr, ptr %16, align 8, !tbaa !19
  %32 = getelementptr inbounds nuw %struct.ARKodeMRIStepMemRec, ptr %31, i32 0, i32 49
  %33 = load ptr, ptr %32, align 8, !tbaa !92
  %34 = load ptr, ptr %9, align 8, !tbaa !17
  %35 = call i32 %33(ptr noundef %34)
  br label %36

36:                                               ; preds = %30, %25
  %37 = load ptr, ptr %10, align 8, !tbaa !3
  %38 = load ptr, ptr %16, align 8, !tbaa !19
  %39 = getelementptr inbounds nuw %struct.ARKodeMRIStepMemRec, ptr %38, i32 0, i32 46
  store ptr %37, ptr %39, align 8, !tbaa !89
  %40 = load ptr, ptr %11, align 8, !tbaa !3
  %41 = load ptr, ptr %16, align 8, !tbaa !19
  %42 = getelementptr inbounds nuw %struct.ARKodeMRIStepMemRec, ptr %41, i32 0, i32 47
  store ptr %40, ptr %42, align 8, !tbaa !90
  %43 = load ptr, ptr %12, align 8, !tbaa !3
  %44 = load ptr, ptr %16, align 8, !tbaa !19
  %45 = getelementptr inbounds nuw %struct.ARKodeMRIStepMemRec, ptr %44, i32 0, i32 48
  store ptr %43, ptr %45, align 8, !tbaa !91
  %46 = load ptr, ptr %13, align 8, !tbaa !3
  %47 = load ptr, ptr %16, align 8, !tbaa !19
  %48 = getelementptr inbounds nuw %struct.ARKodeMRIStepMemRec, ptr %47, i32 0, i32 49
  store ptr %46, ptr %48, align 8, !tbaa !92
  %49 = load ptr, ptr %15, align 8, !tbaa !3
  %50 = load ptr, ptr %16, align 8, !tbaa !19
  %51 = getelementptr inbounds nuw %struct.ARKodeMRIStepMemRec, ptr %50, i32 0, i32 50
  store ptr %49, ptr %51, align 8, !tbaa !93
  %52 = load ptr, ptr %16, align 8, !tbaa !19
  %53 = getelementptr inbounds nuw %struct.ARKodeMRIStepMemRec, ptr %52, i32 0, i32 59
  store i64 0, ptr %53, align 8, !tbaa !97
  %54 = load ptr, ptr %16, align 8, !tbaa !19
  %55 = getelementptr inbounds nuw %struct.ARKodeMRIStepMemRec, ptr %54, i32 0, i32 41
  store i64 0, ptr %55, align 8, !tbaa !98
  store i32 0, ptr %8, align 4
  store i32 1, ptr %18, align 4
  br label %56

56:                                               ; preds = %36, %23
  call void @llvm.lifetime.end.p0(i64 4, ptr %17) #8
  call void @llvm.lifetime.end.p0(i64 8, ptr %16) #8
  %57 = load i32, ptr %8, align 4
  ret i32 %57
}