; Function Attrs: nounwind uwtable
define range(i32 -21, 1) i32 @mriStep_AttachLinsol(ptr noundef %0, ptr noundef %1, ptr noundef %2, ptr noundef %3, ptr noundef %4, i32 %5, ptr noundef %6) #0 {
  %8 = getelementptr inbounds nuw i8, ptr %0, i64 136
  %9 = load ptr, ptr %8, align 8, !tbaa !71
  %10 = icmp eq ptr %9, null
  br i1 %10, label %mriStep_AccessStepMem.exit, label %11

mriStep_AccessStepMem.exit:                       ; preds = %7
  tail call void (ptr, i32, i32, ptr, ptr, ptr, ...) @arkProcessError(ptr noundef nonnull %0, i32 noundef -21, i32 noundef 3097, ptr noundef nonnull @__func__.mriStep_AttachLinsol, ptr noundef nonnull @.str, ptr noundef nonnull @.str.75) #14
  br label %23

11:                                               ; preds = %7
  %12 = getelementptr inbounds nuw i8, ptr %9, i64 344
  %13 = load ptr, ptr %12, align 8, !tbaa !108
  %.not11 = icmp eq ptr %13, null
  br i1 %.not11, label %16, label %14

14:                                               ; preds = %11
  %15 = tail call i32 %13(ptr noundef nonnull %0) #14
  br label %16

16:                                               ; preds = %14, %11
  %17 = getelementptr inbounds nuw i8, ptr %9, i64 320
  store ptr %1, ptr %17, align 8, !tbaa !109
  %18 = getelementptr inbounds nuw i8, ptr %9, i64 328
  store ptr %2, ptr %18, align 8, !tbaa !110
  %19 = getelementptr inbounds nuw i8, ptr %9, i64 336
  store ptr %3, ptr %19, align 8, !tbaa !111
  store ptr %4, ptr %12, align 8, !tbaa !108
  %20 = getelementptr inbounds nuw i8, ptr %9, i64 352
  store ptr %6, ptr %20, align 8, !tbaa !112
  %21 = getelementptr inbounds nuw i8, ptr %9, i64 424
  store i64 0, ptr %21, align 8, !tbaa !113
  %22 = getelementptr inbounds nuw i8, ptr %9, i64 288
  store i64 0, ptr %22, align 8, !tbaa !91
  br label %23

23:                                               ; preds = %mriStep_AccessStepMem.exit, %16
  %.0 = phi i32 [ 0, %16 ], [ -21, %mriStep_AccessStepMem.exit ]
  ret i32 %.0
}